; Function Attrs: mustprogress uwtable
define noundef i32 @_ZN21SelectionFilterPlugin15getRequirementsEPK7QAction(ptr noundef nonnull align 8 dereferenceable(80) %0, ptr noundef %1) unnamed_addr #9 align 2 {
  %3 = getelementptr inbounds i8, ptr %0, i64 16
  %4 = load ptr, ptr %3, align 8
  %5 = getelementptr inbounds i8, ptr %4, i64 144
  %6 = load ptr, ptr %5, align 8
  %7 = tail call noundef i32 %6(ptr noundef nonnull align 8 dereferenceable(64) %3, ptr noundef %1)
  switch i32 %7, label %10 [
    i32 21, label %11
    i32 22, label %11
    i32 5, label %11
    i32 20, label %11
    i32 19, label %8
    i32 3, label %9
  ]

8:                                                ; preds = %2
  br label %11

9:                                                ; preds = %2
  br label %11

10:                                               ; preds = %2
  br label %11

11:                                               ; preds = %2, %2, %2, %2, %10, %9, %8
  %.0 = phi i32 [ 0, %10 ], [ 64, %9 ], [ 393216, %8 ], [ 262144, %2 ], [ 262144, %2 ], [ 262144, %2 ], [ 262144, %2 ]
  ret i32 %.0
}